target datalayout = "e-m:e-p270:32:32-p271:32:32-p272:64:64-i64:64-i128:128-f80:128-n8:16:32:64-S128"
target triple = "x86_64-pc-linux-gnu"

@je_opt_abort = external global i8, align 1
@mmap_flags = internal global i32 0, align 4
@os_overcommits = internal global i8 0, align 1
@.str.7 = private unnamed_addr constant [35 x i8] c"<jemalloc>: Error in munmap(): %s\0A\00", align 1

; Function Attrs: inlinehint nounwind uwtable
define internal i32 @get_errno() #6 {
  %1 = call ptr @__errno_location() #13
  %2 = load i32, ptr %1, align 4, !tbaa !16
  ret i32 %2
}

; Function Attrs: nounwind uwtable
define internal void @os_pages_unmap(ptr noundef %0, i64 noundef %1) #0 {
  %3 = alloca ptr, align 8
  %4 = alloca i64, align 8
  %5 = alloca [64 x i8], align 16
  store ptr %0, ptr %3, align 8, !tbaa !4
  store i64 %1, ptr %4, align 8, !tbaa !8
  br label %6

6:                                                ; preds = %2
  br label %7

7:                                                ; preds = %6
  br label %8

8:                                                ; preds = %7
  br label %9

9:                                                ; preds = %8
  %10 = load ptr, ptr %3, align 8, !tbaa !4
  %11 = load i64, ptr %4, align 8, !tbaa !8
  %12 = call i32 @munmap(ptr noundef %10, i64 noundef %11) #10
  %13 = icmp eq i32 %12, -1
  br i1 %13, label %14, label %23

14:                                               ; preds = %9
  call void @llvm.lifetime.start.p0(i64 64, ptr %5) #10
  %15 = call i32 @get_errno()
  %16 = getelementptr inbounds [64 x i8], ptr %5, i64 0, i64 0
  %17 = call i32 @je_buferror(i32 noundef %15, ptr noundef %16, i64 noundef 64)
  %18 = getelementptr inbounds [64 x i8], ptr %5, i64 0, i64 0
  call void (ptr, ...) @je_malloc_printf(ptr noundef @.str.7, ptr noundef %18)
  %19 = load i8, ptr @je_opt_abort, align 1, !tbaa !12, !range !14, !noundef !15
  %20 = trunc i8 %19 to i1
  br i1 %20, label %21, label %22

21:                                               ; preds = %14
  call void @abort() #11
  unreachable

22:                                               ; preds = %14
  call void @llvm.lifetime.end.p0(i64 64, ptr %5) #10
  br label %23

23:                                               ; preds = %22, %9
  ret void
}

; Function Attrs: nounwind uwtable
define internal ptr @os_pages_map(ptr noundef %0, i64 noundef %1, i64 noundef %2, ptr noundef %3) #0 {
  %5 = alloca ptr, align 8
  %6 = alloca i64, align 8
  %7 = alloca i64, align 8
  %8 = alloca ptr, align 8
  %9 = alloca ptr, align 8
  %10 = alloca i32, align 4
  %11 = alloca i32, align 4
  store ptr %0, ptr %5, align 8, !tbaa !4
  store i64 %1, ptr %6, align 8, !tbaa !8
  store i64 %2, ptr %7, align 8, !tbaa !8
  store ptr %3, ptr %8, align 8, !tbaa !10
  br label %12

12:                                               ; preds = %4
  br label %13

13:                                               ; preds = %12
  br label %14

14:                                               ; preds = %13
  br label %15

15:                                               ; preds = %14
  br label %16

16:                                               ; preds = %15
  br label %17

17:                                               ; preds = %16
  %18 = load i8, ptr @os_overcommits, align 1, !tbaa !12, !range !14, !noundef !15
  %19 = trunc i8 %18 to i1
  br i1 %19, label %20, label %22

20:                                               ; preds = %17
  %21 = load ptr, ptr %8, align 8, !tbaa !10
  store i8 1, ptr %21, align 1, !tbaa !12
  br label %22

22:                                               ; preds = %20, %17
  call void @llvm.lifetime.start.p0(i64 8, ptr %9) #10
  call void @llvm.lifetime.start.p0(i64 4, ptr %10) #10
  %23 = load i32, ptr @mmap_flags, align 4, !tbaa !16
  store i32 %23, ptr %10, align 4, !tbaa !16
  call void @llvm.lifetime.start.p0(i64 4, ptr %11) #10
  %24 = load ptr, ptr %8, align 8, !tbaa !10
  %25 = load i8, ptr %24, align 1, !tbaa !12, !range !14, !noundef !15
  %26 = trunc i8 %25 to i1
  %27 = select i1 %26, i32 3, i32 0
  store i32 %27, ptr %11, align 4, !tbaa !16
  %28 = load ptr, ptr %5, align 8, !tbaa !4
  %29 = load i64, ptr %6, align 8, !tbaa !8
  %30 = load i32, ptr %11, align 4, !tbaa !16
  %31 = load i32, ptr %10, align 4, !tbaa !16
  %32 = call ptr @mmap(ptr noundef %28, i64 noundef %29, i32 noundef %30, i32 noundef %31, i32 noundef -1, i64 noundef 0) #10
  store ptr %32, ptr %9, align 8, !tbaa !4
  call void @llvm.lifetime.end.p0(i64 4, ptr %11) #10
  call void @llvm.lifetime.end.p0(i64 4, ptr %10) #10
  br label %33

33:                                               ; preds = %22
  br label %34

34:                                               ; preds = %33
  br label %35

35:                                               ; preds = %34
  %36 = load ptr, ptr %9, align 8, !tbaa !4
  %37 = icmp eq ptr %36, inttoptr (i64 -1 to ptr)
  br i1 %37, label %38, label %39

38:                                               ; preds = %35
  store ptr null, ptr %9, align 8, !tbaa !4
  br label %50

39:                                               ; preds = %35
  %40 = load ptr, ptr %5, align 8, !tbaa !4
  %41 = icmp ne ptr %40, null
  br i1 %41, label %42, label %49

42:                                               ; preds = %39
  %43 = load ptr, ptr %9, align 8, !tbaa !4
  %44 = load ptr, ptr %5, align 8, !tbaa !4
  %45 = icmp ne ptr %43, %44
  br i1 %45, label %46, label %49

46:                                               ; preds = %42
  %47 = load ptr, ptr %9, align 8, !tbaa !4
  %48 = load i64, ptr %6, align 8, !tbaa !8
  call void @os_pages_unmap(ptr noundef %47, i64 noundef %48)
  store ptr null, ptr %9, align 8, !tbaa !4
  br label %49

49:                                               ; preds = %46, %42, %39
  br label %50

50:                                               ; preds = %49, %38
  br label %51

51:                                               ; preds = %50
  br label %52

52:                                               ; preds = %51
  br label %53

53:                                               ; preds = %52
  %54 = load ptr, ptr %9, align 8, !tbaa !4
  call void @llvm.lifetime.end.p0(i64 8, ptr %9) #10
  ret ptr %54
}